target datalayout = "e-m:e-p270:32:32-p271:32:32-p272:64:64-i64:64-i128:128-f80:128-n8:16:32:64-S128"
target triple = "x86_64-pc-linux-gnu"

%struct.AVFormatContext = type { ptr, ptr, ptr, ptr, ptr, i32, i32, ptr, i32, ptr, i32, ptr, ptr, i64, i64, i64, i32, i32, i32, i64, i64, ptr, i32, i32, ptr, i32, i32, i32, i32, ptr, i64, i32, i32, %struct.AVIOInterruptCB, i32, i32, i32, i32, i64, i32, i32, i32, i32, i32, i32, i32, i32, i32, i32, i32, i32, i64, i32, i32, i32, i32, i32, ptr, ptr, ptr, ptr, i32, ptr, ptr, ptr, ptr, i32, ptr, ptr, i64, ptr, ptr, ptr, i64 }
%struct.AVIOInterruptCB = type { ptr, ptr }
%struct.AVStream = type { ptr, i32, i32, ptr, ptr, %struct.AVRational, i64, i64, i64, i32, i32, %struct.AVRational, ptr, %struct.AVRational, %struct.AVPacket, i32, %struct.AVRational, i32 }
%struct.AVPacket = type { ptr, i64, i64, ptr, i32, i32, i32, ptr, i32, i64, i64, ptr, ptr, %struct.AVRational }
%struct.AVRational = type { i32, i32 }
%struct.AVCodecParameters = type { i32, i32, i32, ptr, i32, ptr, i32, i32, i64, i32, i32, i32, i32, i32, i32, %struct.AVRational, %struct.AVRational, i32, i32, i32, i32, i32, i32, i32, %struct.AVChannelLayout, i32, i32, i32, i32, i32, i32 }
%struct.AVChannelLayout = type { i32, i32, %union.anon, ptr }
%union.anon = type { i64 }

; Function Attrs: nounwind uwtable
define internal i32 @apm_write_header(ptr noundef %0) #0 {
  %2 = alloca ptr, align 8
  %3 = alloca [80 x i8], align 16
  %4 = alloca ptr, align 8
  store ptr %0, ptr %2, align 8, !tbaa !15
  call void @llvm.lifetime.start.p0(i64 80, ptr %3) #6
  call void @llvm.memset.p0.i64(ptr align 16 %3, i8 0, i64 80, i1 false)
  call void @llvm.lifetime.start.p0(i64 8, ptr %4) #6
  %5 = load ptr, ptr %2, align 8, !tbaa !15
  %6 = getelementptr inbounds nuw %struct.AVFormatContext, ptr %5, i32 0, i32 7
  %7 = load ptr, ptr %6, align 8, !tbaa !65
  %8 = getelementptr inbounds ptr, ptr %7, i64 0
  %9 = load ptr, ptr %8, align 8, !tbaa !17
  %10 = getelementptr inbounds nuw %struct.AVStream, ptr %9, i32 0, i32 3
  %11 = load ptr, ptr %10, align 8, !tbaa !34
  store ptr %11, ptr %4, align 8, !tbaa !41
  %12 = load ptr, ptr %2, align 8, !tbaa !15
  %13 = getelementptr inbounds nuw %struct.AVFormatContext, ptr %12, i32 0, i32 4
  %14 = load ptr, ptr %13, align 8, !tbaa !19
  call void @avio_wl16(ptr noundef %14, i32 noundef 8192)
  %15 = load ptr, ptr %2, align 8, !tbaa !15
  %16 = getelementptr inbounds nuw %struct.AVFormatContext, ptr %15, i32 0, i32 4
  %17 = load ptr, ptr %16, align 8, !tbaa !19
  %18 = load ptr, ptr %4, align 8, !tbaa !41
  %19 = getelementptr inbounds nuw %struct.AVCodecParameters, ptr %18, i32 0, i32 24
  %20 = getelementptr inbounds nuw %struct.AVChannelLayout, ptr %19, i32 0, i32 1
  %21 = load i32, ptr %20, align 4, !tbaa !52
  call void @avio_wl16(ptr noundef %17, i32 noundef %21)
  %22 = load ptr, ptr %2, align 8, !tbaa !15
  %23 = getelementptr inbounds nuw %struct.AVFormatContext, ptr %22, i32 0, i32 4
  %24 = load ptr, ptr %23, align 8, !tbaa !19
  %25 = load ptr, ptr %4, align 8, !tbaa !41
  %26 = getelementptr inbounds nuw %struct.AVCodecParameters, ptr %25, i32 0, i32 25
  %27 = load i32, ptr %26, align 8, !tbaa !43
  call void @avio_wl32(ptr noundef %24, i32 noundef %27)
  %28 = load ptr, ptr %2, align 8, !tbaa !15
  %29 = getelementptr inbounds nuw %struct.AVFormatContext, ptr %28, i32 0, i32 4
  %30 = load ptr, ptr %29, align 8, !tbaa !19
  %31 = load ptr, ptr %4, align 8, !tbaa !41
  %32 = getelementptr inbounds nuw %struct.AVCodecParameters, ptr %31, i32 0, i32 25
  %33 = load i32, ptr %32, align 8, !tbaa !43
  %34 = load ptr, ptr %4, align 8, !tbaa !41
  %35 = getelementptr inbounds nuw %struct.AVCodecParameters, ptr %34, i32 0, i32 24
  %36 = getelementptr inbounds nuw %struct.AVChannelLayout, ptr %35, i32 0, i32 1
  %37 = load i32, ptr %36, align 4, !tbaa !52
  %38 = mul nsw i32 %33, %37
  %39 = mul nsw i32 %38, 2
  call void @avio_wl32(ptr noundef %30, i32 noundef %39)
  %40 = load ptr, ptr %2, align 8, !tbaa !15
  %41 = getelementptr inbounds nuw %struct.AVFormatContext, ptr %40, i32 0, i32 4
  %42 = load ptr, ptr %41, align 8, !tbaa !19
  %43 = load ptr, ptr %4, align 8, !tbaa !41
  %44 = getelementptr inbounds nuw %struct.AVCodecParameters, ptr %43, i32 0, i32 26
  %45 = load i32, ptr %44, align 4, !tbaa !47
  call void @avio_wl16(ptr noundef %42, i32 noundef %45)
  %46 = load ptr, ptr %2, align 8, !tbaa !15
  %47 = getelementptr inbounds nuw %struct.AVFormatContext, ptr %46, i32 0, i32 4
  %48 = load ptr, ptr %47, align 8, !tbaa !19
  %49 = load ptr, ptr %4, align 8, !tbaa !41
  %50 = getelementptr inbounds nuw %struct.AVCodecParameters, ptr %49, i32 0, i32 9
  %51 = load i32, ptr %50, align 8, !tbaa !48
  call void @avio_wl16(ptr noundef %48, i32 noundef %51)
  %52 = load ptr, ptr %2, align 8, !tbaa !15
  %53 = getelementptr inbounds nuw %struct.AVFormatContext, ptr %52, i32 0, i32 4
  %54 = load ptr, ptr %53, align 8, !tbaa !19
  call void @avio_wl32(ptr noundef %54, i32 noundef 80)
  %55 = getelementptr inbounds [80 x i8], ptr %3, i64 0, i64 0
  %56 = getelementptr inbounds i8, ptr %55, i64 0
  store i32 842101622, ptr %56, align 1, !tbaa !13
  %57 = getelementptr inbounds [80 x i8], ptr %3, i64 0, i64 0
  %58 = getelementptr inbounds i8, ptr %57, i64 12
  store i32 -1, ptr %58, align 1, !tbaa !13
  %59 = getelementptr inbounds [80 x i8], ptr %3, i64 0, i64 0
  %60 = getelementptr inbounds i8, ptr %59, i64 20
  %61 = load ptr, ptr %4, align 8, !tbaa !41
  %62 = getelementptr inbounds nuw %struct.AVCodecParameters, ptr %61, i32 0, i32 3
  %63 = load ptr, ptr %62, align 8, !tbaa !59
  call void @llvm.memcpy.p0.p0.i64(ptr align 1 %60, ptr align 1 %63, i64 28, i1 false)
  %64 = getelementptr inbounds [80 x i8], ptr %3, i64 0, i64 0
  %65 = getelementptr inbounds i8, ptr %64, i64 76
  store i32 1096040772, ptr %65, align 1, !tbaa !13
  %66 = load ptr, ptr %2, align 8, !tbaa !15
  %67 = getelementptr inbounds nuw %struct.AVFormatContext, ptr %66, i32 0, i32 4
  %68 = load ptr, ptr %67, align 8, !tbaa !19
  %69 = getelementptr inbounds [80 x i8], ptr %3, i64 0, i64 0
  call void @avio_write(ptr noundef %68, ptr noundef %69, i32 noundef 80)
  call void @llvm.lifetime.end.p0(i64 8, ptr %4) #6
  call void @llvm.lifetime.end.p0(i64 80, ptr %3) #6
  ret i32 0
}