; Function Attrs: nounwind uwtable
define internal noundef i32 @apm_write_header(ptr noundef readonly captures(none) %0) #1 {
  %2 = alloca [80 x i8], align 16
  call void @llvm.lifetime.start.p0(i64 80, ptr nonnull %2) #7
  call void @llvm.memset.p0.i64(ptr noundef nonnull align 16 dereferenceable(80) %2, i8 0, i64 80, i1 false)
  %3 = getelementptr inbounds nuw i8, ptr %0, i64 48
  %4 = load ptr, ptr %3, align 8, !tbaa !53
  %5 = load ptr, ptr %4, align 8, !tbaa !54
  %6 = getelementptr inbounds nuw i8, ptr %5, i64 16
  %7 = load ptr, ptr %6, align 8, !tbaa !28
  %8 = getelementptr inbounds nuw i8, ptr %0, i64 32
  %9 = load ptr, ptr %8, align 8, !tbaa !13
  tail call void @avio_wl16(ptr noundef %9, i32 noundef 8192) #7
  %10 = load ptr, ptr %8, align 8, !tbaa !13
  %11 = getelementptr inbounds nuw i8, ptr %7, i64 132
  %12 = load i32, ptr %11, align 4, !tbaa !43
  tail call void @avio_wl16(ptr noundef %10, i32 noundef %12) #7
  %13 = load ptr, ptr %8, align 8, !tbaa !13
  %14 = getelementptr inbounds nuw i8, ptr %7, i64 152
  %15 = load i32, ptr %14, align 8, !tbaa !35
  tail call void @avio_wl32(ptr noundef %13, i32 noundef %15) #7
  %16 = load ptr, ptr %8, align 8, !tbaa !13
  %17 = load i32, ptr %14, align 8, !tbaa !35
  %18 = load i32, ptr %11, align 4, !tbaa !43
  %19 = shl i32 %17, 1
  %20 = mul i32 %19, %18
  tail call void @avio_wl32(ptr noundef %16, i32 noundef %20) #7
  %21 = load ptr, ptr %8, align 8, !tbaa !13
  %22 = getelementptr inbounds nuw i8, ptr %7, i64 156
  %23 = load i32, ptr %22, align 4, !tbaa !38
  tail call void @avio_wl16(ptr noundef %21, i32 noundef %23) #7
  %24 = load ptr, ptr %8, align 8, !tbaa !13
  %25 = getelementptr inbounds nuw i8, ptr %7, i64 56
  %26 = load i32, ptr %25, align 8, !tbaa !39
  tail call void @avio_wl16(ptr noundef %24, i32 noundef %26) #7
  %27 = load ptr, ptr %8, align 8, !tbaa !13
  tail call void @avio_wl32(ptr noundef %27, i32 noundef 80) #7
  store i32 842101622, ptr %2, align 16, !tbaa !11
  %28 = getelementptr inbounds nuw i8, ptr %2, i64 12
  store i32 -1, ptr %28, align 4, !tbaa !11
  %29 = getelementptr inbounds nuw i8, ptr %2, i64 20
  %30 = getelementptr inbounds nuw i8, ptr %7, i64 16
  %31 = load ptr, ptr %30, align 8, !tbaa !49
  call void @llvm.memcpy.p0.p0.i64(ptr noundef nonnull align 4 dereferenceable(28) %29, ptr noundef nonnull align 1 dereferenceable(28) %31, i64 28, i1 false)
  %32 = getelementptr inbounds nuw i8, ptr %2, i64 76
  store i32 1096040772, ptr %32, align 4, !tbaa !11
  %33 = load ptr, ptr %8, align 8, !tbaa !13
  call void @avio_write(ptr noundef %33, ptr noundef nonnull %2, i32 noundef 80) #7
  call void @llvm.lifetime.end.p0(i64 80, ptr nonnull %2) #7
  ret i32 0
}